Certificate:
    Data:
        Version: 3 (0x2)
        Serial Number: 4096 (0x1000)
    Signature Algorithm: sha256WithRSAEncryption
        Issuer: C=HR, ST=Splitsko-Dalmatinska, L=Split, O=UNIST, OU=UNIST Certificate Authority , CN=www.unist.hr CA
        Validity
            Not Before: Jul 24 10:58:32 2021 GMT
            Not After : Jul 22 10:58:32 2031 GMT
        Subject: C=HR, ST=Splitsko-Dalmatinska, O=UNIST, OU=UNIST Certificate Authority , CN=www.unist.hr Intermediate CA
        Subject Public Key Info:
            Public Key Algorithm: rsaEncryption
                Public-Key: (4096 bit)
                Modulus:
                    00:99:fd:0c:6a:ec:2f:5d:9b:57:b7:f1:7f:3d:07:
                    56:99:d6:d3:08:00:c3:b4:6e:bf:db:1d:01:5e:5f:
                    7c:76:52:ab:ae:de:60:32:5b:5e:5b:15:00:fa:0c:
                    e1:74:75:48:ee:75:46:38:c9:13:ad:56:bc:ba:9c:
                    f4:c3:ad:30:82:40:ce:8c:a2:2d:c3:ab:f8:28:83:
                    22:7b:f1:d3:fa:52:5e:c4:72:e6:28:b8:2a:b5:32:
                    3e:a1:57:2c:c7:bf:92:f5:aa:e5:f3:81:a4:98:d6:
                    a3:fd:ce:77:dc:2e:5f:43:76:d8:90:9a:7d:21:06:
                    87:c9:7a:c7:fc:c1:51:6f:ba:22:63:c2:62:82:c9:
                    81:c8:fc:cb:0d:0d:81:e2:51:df:da:1d:21:60:9c:
                    95:d8:ff:a5:0f:12:7c:c3:d8:0d:45:51:d0:48:f8:
                    ea:5e:ed:ab:7a:6f:33:58:cf:ef:cf:2e:e5:ab:9c:
                    b7:1f:1f:1f:a1:0a:a6:5e:88:f9:aa:12:eb:2b:02:
                    9e:24:66:b1:91:b7:76:b7:df:16:7f:e1:05:68:e7:
                    08:53:5d:1d:09:d4:fd:11:1c:8c:67:43:95:13:cc:
                    dc:fe:d2:91:cf:ce:0f:54:64:a3:00:2a:7b:e0:0e:
                    4f:58:aa:76:9a:65:a8:4d:1a:79:70:85:09:53:a2:
                    33:44:43:e0:4b:eb:df:88:d2:8e:ef:e6:92:bd:fc:
                    08:eb:f2:8e:d1:2d:38:e8:90:7a:ea:88:fd:89:65:
                    82:98:d7:3d:38:68:47:68:b1:17:62:82:4e:ef:92:
                    af:81:a6:a1:59:ce:f4:a5:ca:7f:07:9b:e7:ae:be:
                    4c:21:ac:3e:0e:8c:25:a3:e9:97:72:65:c2:69:05:
                    7b:76:d5:5c:6c:ef:51:2b:0d:96:4e:55:3a:65:7c:
                    e7:de:e1:9d:2f:a9:b5:cd:f6:e7:a2:92:e5:e4:3c:
                    b8:6a:22:fd:0a:f7:e8:b9:29:f5:1f:72:d5:68:0b:
                    1b:55:2e:b0:14:11:c7:46:75:f8:41:cf:0a:f6:69:
                    c3:ed:30:53:15:d8:11:24:03:8c:0a:a2:8a:20:44:
                    72:8f:16:09:4c:9e:e8:13:ed:27:1d:36:cc:a2:3a:
                    a5:79:91:85:19:ce:0f:e7:d1:42:e2:af:e8:85:62:
                    79:36:38:92:2c:d8:3f:f4:f5:29:27:0c:3a:c8:cd:
                    bd:04:25:cf:24:69:af:0f:f2:f0:f5:26:c7:b0:c3:
                    56:8a:83:3e:4f:b4:a0:df:d1:27:7f:08:a6:59:d1:
                    c6:c7:af:fd:15:b4:11:d5:66:4b:f4:3d:6b:e4:3b:
                    f5:d5:2b:98:fe:09:ab:bf:a6:12:57:72:b7:5d:0b:
                    77:dc:89
                Exponent: 65537 (0x10001)
        X509v3 extensions:
            X509v3 Subject Key Identifier: 
                F2:B8:44:C6:B8:91:E4:A9:D2:00:A3:CA:9C:7B:00:A6:57:A7:C4:BB
            X509v3 Authority Key Identifier: 
                keyid:0F:A8:32:F7:87:C8:7B:31:6E:7E:32:EB:7A:2A:74:4B:35:89:03:59

            X509v3 Basic Constraints: critical
                CA:TRUE, pathlen:0
            X509v3 Key Usage: critical
                Digital Signature, Certificate Sign, CRL Sign
            X509v3 CRL Distribution Points: 

                Full Name:
                  URI:http://crl.example.com/ca.crl.pem

    Signature Algorithm: sha256WithRSAEncryption
         08:11:58:b0:c8:c5:65:77:19:e0:15:bb:7f:1c:77:51:e8:e0:
         a1:e5:87:8c:ec:d5:8f:c9:54:8a:31:4e:96:5c:b8:7a:7d:c0:
         00:34:21:ec:21:6a:a1:b1:62:2f:2a:43:b9:04:74:3d:56:76:
         2f:e2:d1:3a:e7:1c:8d:f3:3f:45:71:2d:2e:cf:97:ba:95:8a:
         ea:2a:f6:6f:db:fa:67:7d:93:17:33:11:e5:06:ff:e2:c3:4b:
         20:e4:b5:04:61:35:0c:f0:22:26:b4:05:8e:eb:84:4a:32:58:
         49:c4:fd:66:5d:7a:d6:08:df:68:43:62:5f:ea:e8:a7:92:87:
         6c:4a:bd:a1:f0:7e:92:85:44:32:a8:30:69:35:73:9d:eb:76:
         a5:45:ba:1b:a4:e8:12:71:90:59:58:14:85:c3:ff:2b:50:af:
         2e:6f:3a:ab:cd:c9:81:bd:b6:55:33:27:58:dc:1e:c1:05:47:
         e5:7d:a7:6c:82:a5:0c:df:55:38:e4:91:11:3e:3f:ff:d2:77:
         a6:d2:05:1c:8b:2f:95:28:90:59:62:0f:42:2b:13:56:87:5f:
         94:fe:46:87:07:6e:ab:a8:fa:3d:9f:9e:89:c4:66:e1:89:ae:
         0e:a6:1f:81:06:49:66:ce:5e:57:33:a7:15:ea:6c:3a:45:5a:
         27:e2:35:7a:74:66:22:ac:74:8c:38:0c:b1:9a:d3:d2:6b:e2:
         db:08:79:b0:9f:18:d4:12:d4:07:05:a6:1d:17:a5:1b:e4:c9:
         39:4e:bf:2d:19:99:19:b5:79:fa:d6:9a:4e:20:ab:22:7d:30:
         b4:f0:1f:6a:49:7d:41:e1:59:7c:4d:ee:06:16:b8:b1:61:71:
         b1:93:3d:65:15:ec:49:a5:53:f1:ad:18:2f:f7:07:66:6d:c7:
         1f:3e:c7:c4:28:6c:c9:e8:72:38:7e:82:ad:3d:92:4c:79:b2:
         12:ac:0b:a7:ea:93:89:36:6e:0e:97:a1:69:fe:ab:03:a9:64:
         af:7a:82:b7:1c:17:bc:b8:fb:ab:97:34:35:af:d0:5d:55:0f:
         1f:ba:58:5d:f0:ad:3b:81:a5:43:81:b9:fd:a5:75:7d:ab:5e:
         eb:ee:53:c0:40:9d:35:3e:85:5f:54:58:8d:21:a5:f5:8e:c6:
         3e:38:d7:a6:fb:1d:43:57:54:d6:10:2e:cd:32:ad:88:16:ce:
         82:95:a6:2d:03:90:59:92:da:e3:2f:65:d3:5f:eb:a1:4c:4e:
         da:b4:7c:36:8a:3a:21:77:69:ad:ca:7a:1c:82:30:d6:4c:83:
         80:b0:ff:20:6e:df:47:67:15:72:57:cd:7f:cb:08:0f:0f:36:
         2f:e6:45:78:05:36:ae:23
-----BEGIN CERTIFICATE-----
MIIGMTCCBBmgAwIBAgICEAAwDQYJKoZIhvcNAQELBQAwgY0xCzAJBgNVBAYTAkhS
MR0wGwYDVQQIDBRTcGxpdHNrby1EYWxtYXRpbnNrYTEOMAwGA1UEBwwFU3BsaXQx
DjAMBgNVBAoMBVVOSVNUMSUwIwYDVQQLDBxVTklTVCBDZXJ0aWZpY2F0ZSBBdXRo
b3JpdHkgMRgwFgYDVQQDDA93d3cudW5pc3QuaHIgQ0EwHhcNMjEwNzI0MTA1ODMy
WhcNMzEwNzIyMTA1ODMyWjCBijELMAkGA1UEBhMCSFIxHTAbBgNVBAgMFFNwbGl0
c2tvLURhbG1hdGluc2thMQ4wDAYDVQQKDAVVTklTVDElMCMGA1UECwwcVU5JU1Qg
Q2VydGlmaWNhdGUgQXV0aG9yaXR5IDElMCMGA1UEAwwcd3d3LnVuaXN0LmhyIElu
dGVybWVkaWF0ZSBDQTCCAiIwDQYJKoZIhvcNAQEBBQADggIPADCCAgoCggIBAJn9
DGrsL12bV7fxfz0HVpnW0wgAw7Ruv9sdAV5ffHZSq67eYDJbXlsVAPoM4XR1SO51
RjjJE61WvLqc9MOtMIJAzoyiLcOr+CiDInvx0/pSXsRy5ii4KrUyPqFXLMe/kvWq
5fOBpJjWo/3Od9wuX0N22JCafSEGh8l6x/zBUW+6ImPCYoLJgcj8yw0NgeJR39od
IWCcldj/pQ8SfMPYDUVR0Ej46l7tq3pvM1jP788u5auctx8fH6EKpl6I+aoS6ysC
niRmsZG3drffFn/hBWjnCFNdHQnU/REcjGdDlRPM3P7Skc/OD1RkowAqe+AOT1iq
dpplqE0aeXCFCVOiM0RD4Evr34jSju/mkr38COvyjtEtOOiQeuqI/YllgpjXPTho
R2ixF2KCTu+Sr4GmoVnO9KXKfweb566+TCGsPg6MJaPpl3JlwmkFe3bVXGzvUSsN
lk5VOmV8597hnS+ptc3256KS5eQ8uGoi/Qr36Lkp9R9y1WgLG1UusBQRx0Z1+EHP
CvZpw+0wUxXYESQDjAqiiiBEco8WCUye6BPtJx02zKI6pXmRhRnOD+fRQuKv6IVi
eTY4kizYP/T1KScMOsjNvQQlzyRprw/y8PUmx7DDVoqDPk+0oN/RJ38IplnRxsev
/RW0EdVmS/Q9a+Q79dUrmP4Jq7+mEldyt10Ld9yJAgMBAAGjgZswgZgwHQYDVR0O
BBYEFPK4RMa4keSp0gCjypx7AKZXp8S7MB8GA1UdIwQYMBaAFA+oMveHyHsxbn4y
63oqdEs1iQNZMBIGA1UdEwEB/wQIMAYBAf8CAQAwDgYDVR0PAQH/BAQDAgGGMDIG
A1UdHwQrMCkwJ6AloCOGIWh0dHA6Ly9jcmwuZXhhbXBsZS5jb20vY2EuY3JsLnBl
bTANBgkqhkiG9w0BAQsFAAOCAgEACBFYsMjFZXcZ4BW7fxx3UejgoeWHjOzVj8lU
ijFOlly4en3AADQh7CFqobFiLypDuQR0PVZ2L+LROuccjfM/RXEtLs+XupWK6ir2
b9v6Z32TFzMR5Qb/4sNLIOS1BGE1DPAiJrQFjuuESjJYScT9Zl161gjfaENiX+ro
p5KHbEq9ofB+koVEMqgwaTVznet2pUW6G6ToEnGQWVgUhcP/K1CvLm86q83Jgb22
VTMnWNwewQVH5X2nbIKlDN9VOOSRET4//9J3ptIFHIsvlSiQWWIPQisTVodflP5G
hwduq6j6PZ+eicRm4YmuDqYfgQZJZs5eVzOnFepsOkVaJ+I1enRmIqx0jDgMsZrT
0mvi2wh5sJ8Y1BLUBwWmHRelG+TJOU6/LRmZGbV5+taaTiCrIn0wtPAfakl9QeFZ
fE3uBha4sWFxsZM9ZRXsSaVT8a0YL/cHZm3HHz7HxChsyehyOH6CrT2STHmyEqwL
p+qTiTZuDpehaf6rA6lkr3qCtxwXvLj7q5c0Na/QXVUPH7pYXfCtO4GlQ4G5/aV1
fate6+5TwECdNT6FX1RYjSGl9Y7GPjjXpvsdQ1dU1hAuzTKtiBbOgpWmLQOQWZLa
4y9l01/roUxO2rR8Noo6IXdprcp6HIIw1kyDgLD/IG7fR2cVclfNf8sIDw82L+ZF
eAU2riM=
-----END CERTIFICATE-----
-----BEGIN CERTIFICATE-----
MIIGAjCCA+qgAwIBAgIJAOs9QXUqT5E2MA0GCSqGSIb3DQEBCwUAMIGNMQswCQYD
VQQGEwJIUjEdMBsGA1UECAwUU3BsaXRza28tRGFsbWF0aW5za2ExDjAMBgNVBAcM
BVNwbGl0MQ4wDAYDVQQKDAVVTklTVDElMCMGA1UECwwcVU5JU1QgQ2VydGlmaWNh
dGUgQXV0aG9yaXR5IDEYMBYGA1UEAwwPd3d3LnVuaXN0LmhyIENBMB4XDTIxMDcy
NDEwNTgzMloXDTMxMDcyMjEwNTgzMlowgY0xCzAJBgNVBAYTAkhSMR0wGwYDVQQI
DBRTcGxpdHNrby1EYWxtYXRpbnNrYTEOMAwGA1UEBwwFU3BsaXQxDjAMBgNVBAoM
BVVOSVNUMSUwIwYDVQQLDBxVTklTVCBDZXJ0aWZpY2F0ZSBBdXRob3JpdHkgMRgw
FgYDVQQDDA93d3cudW5pc3QuaHIgQ0EwggIiMA0GCSqGSIb3DQEBAQUAA4ICDwAw
ggIKAoICAQCqDzlqkPBTQli5UVeLR+YTHbS20dWcsJDdix/J8cSSb8JyvnDqwPXW
U+lXTvQEKOm5LYmqrY0zZHpPWBOsaKhIwImj5fHLfTVZEf5VlTH+5t3naI8vqkeO
XKID2ABWdVgAVThK/SyRpP6RHLKE2qySuOOGKMwttnKQ6xV9QFGnx78EuwAwIPtr
CGB0f8CJ2fX0mcQogF5nAAYyUc5BeDL0xWrEAJvG60U2q8YRajM3948+Kjxn/gWc
doLTpSJId7/gUCGPVNuFtOjWVr55rqEiJ3rIXNo7cIR67a7gjiY/k4apBFvSKbUd
mOTKkC0R8sIkaJl/LEdhId5yEtgjfxvstoQ//m/jME6xeY6BAl4nrOxvwO0vcr2l
ejZxVA+fBeq4qBhy2e87j/dXpyLPZxCbCa3vGYsbfWrMQHxwq85xc+zQeniqLAWD
qwYjm/AY7tqFUDCigmUPBnDVH+Q3VYHoxhYiUs8CdDnIL8QMwYlMCppAFUm/OIqI
E3JKoJvn7OGnS3MsOncB1gh/+jROBZJybWjsgdqyF19GPTXPVq8ltpBqZcaNv6Ad
SFY46dQZ54DR98maIJtz+eT/16oNDnaSuuwhs333rkm5h0MH0ypHpd0TR8cpgW5A
eXAsQoU4AlSxfOf0lyHvoHkh9zyVtkUjjLSyCph7QJcBqnZdHOrMUwIDAQABo2Mw
YTAdBgNVHQ4EFgQUD6gy94fIezFufjLreip0SzWJA1kwHwYDVR0jBBgwFoAUD6gy
94fIezFufjLreip0SzWJA1kwDwYDVR0TAQH/BAUwAwEB/zAOBgNVHQ8BAf8EBAMC
AYYwDQYJKoZIhvcNAQELBQADggIBAELLAhacUw2q1eTw0IOu9ABH63NIu2x3KTrb
PxjwLml4ALRtUL08hZ3xPqU0+GyVaP9578fMlc1YxEQrhrwkJPzPcXtDQBjWM7uX
YbMIrt8YXDPJlKoBLFHdQBkIV0BZJgU4YJImfEJ2b2UO7bn1ieQBlPn00Xhff7YO
P3Vt+PhGsB0ZFA0VTAA+Rx9RxWk2uIJY+ss986XuxNObnvk+o/btQi5YuGXVZ5YM
LGRGwQS47FZXf3VJQDstQcO8tqMylt/8ne8X3gabLP1NRXLFLOR0dOPhqC84W3Ph
eflcUwtOStawBM8C0bhwZsdgClzQShT33vxUWyB10zguUiUv1jPRBmwjmTuCs2jY
0UzesTOXK3dBgkXvVwQS37fu7QZRQ9xSOzsjaS5w47q3gORkvDLahhC3+OnH+TV5
wBtXSUWFurSWck1Joujfy2+6vrFrVd8Uaua2ebWXFgMy/fryc0Lh9384zY2967G+
MvjKAQkm55uSUSjRC4ORIDFY6IdE6xhC0+svk50fnPI+FLYvrpgQsWmC6ueBRKVh
BSVs8J12Y1NwxeS+djd4WUgpQ8d6IN1CDCTJLxe6ptSbc2ZQ0XBWN2dK9gl8T2eO
ACApAeeRnNny8PDk7uhY6kVYKDyZHrFvt8g+l1okAi3fZAoQnRsBNOP47ieyGMCR
FjSXTdRA
-----END CERTIFICATE-----
